; Function Attrs: mustprogress uwtable
define dso_local void @_ZN22cmCTestMemCheckHandlerC2Ev(ptr noundef nonnull align 8 dereferenceable(4760) %0) unnamed_addr #3 align 2 {
  tail call void @_ZN18cmCTestTestHandlerC2Ev(ptr noundef nonnull align 8 dereferenceable(4416) %0)
  store ptr getelementptr inbounds ({ [12 x ptr] }, ptr @_ZTV22cmCTestMemCheckHandler, i64 0, i32 0, i64 2), ptr %0, align 8
  %2 = getelementptr inbounds i8, ptr %0, i64 4416
  tail call void @_ZNSt7__cxx1112basic_stringIcSt11char_traitsIcESaIcEEC1Ev(ptr noundef nonnull align 8 dereferenceable(32) %2) #17
  %3 = getelementptr inbounds i8, ptr %0, i64 4448
  tail call void @_ZNSt7__cxx1112basic_stringIcSt11char_traitsIcESaIcEEC1Ev(ptr noundef nonnull align 8 dereferenceable(32) %3) #17
  %4 = getelementptr inbounds i8, ptr %0, i64 4480
  tail call void @_ZNSt7__cxx1112basic_stringIcSt11char_traitsIcESaIcEEC1Ev(ptr noundef nonnull align 8 dereferenceable(32) %4) #17
  %5 = getelementptr inbounds i8, ptr %0, i64 4512
  %6 = getelementptr inbounds i8, ptr %0, i64 4568
  tail call void @llvm.memset.p0.i64(ptr noundef nonnull align 8 dereferenceable(48) %5, i8 0, i64 48, i1 false)
  tail call void @_ZNSt7__cxx1112basic_stringIcSt11char_traitsIcESaIcEEC1Ev(ptr noundef nonnull align 8 dereferenceable(32) %6) #17
  %7 = getelementptr inbounds i8, ptr %0, i64 4600
  tail call void @_ZNSt7__cxx1112basic_stringIcSt11char_traitsIcESaIcEEC1Ev(ptr noundef nonnull align 8 dereferenceable(32) %7) #17
  %8 = getelementptr inbounds i8, ptr %0, i64 4632
  %9 = getelementptr inbounds i8, ptr %0, i64 4712
  %10 = getelementptr inbounds i8, ptr %0, i64 424
  tail call void @llvm.memset.p0.i64(ptr noundef nonnull align 8 dereferenceable(72) %8, i8 0, i64 72, i1 false)
  tail call void @llvm.memset.p0.i64(ptr noundef nonnull align 8 dereferenceable(48) %9, i8 0, i64 48, i1 false)
  store i8 1, ptr %10, align 8
  %11 = getelementptr inbounds i8, ptr %0, i64 428
  store i32 0, ptr %11, align 4
  %12 = getelementptr inbounds i8, ptr %0, i64 432
  store i32 0, ptr %12, align 8
  %13 = getelementptr inbounds i8, ptr %0, i64 4704
  store i8 0, ptr %13, align 8
  ret void
}